target datalayout = "e-m:e-p270:32:32-p271:32:32-p272:64:64-i64:64-i128:128-f80:128-n8:16:32:64-S128"
target triple = "x86_64-pc-linux-gnu"

%struct.CVodeMemRec = type { double, ptr, ptr, i32, i32, i32, double, double, ptr, i32, ptr, ptr, i32, ptr, i32, i32, double, double, ptr, i32, i32, i32, ptr, ptr, ptr, i32, i32, ptr, ptr, ptr, i32, double, i32, i32, double, ptr, ptr, i32, ptr, ptr, i32, i32, i32, double, ptr, ptr, [13 x ptr], ptr, ptr, ptr, ptr, ptr, [13 x ptr], ptr, ptr, ptr, ptr, [13 x ptr], ptr, ptr, ptr, ptr, ptr, i32, [13 x ptr], ptr, ptr, ptr, ptr, ptr, i32, double, i32, i32, i32, i32, i32, double, double, double, double, double, double, double, double, [14 x double], [6 x double], [13 x double], double, double, double, double, double, double, double, double, double, double, double, i32, ptr, i32, i64, i32, i32, i32, i32, i32, double, double, double, i64, i64, i64, i64, i64, i64, i64, i64, i64, ptr, i64, i64, ptr, i64, i64, i64, i64, i64, i64, i32, i64, i64, i64, i64, i64, i64, double, double, double, ptr, ptr, ptr, ptr, ptr, i32, i32, i64, double, double, double, i32, double, i32, i32, i32, i32, i32, i32, i32, i32, i32, i32, i32, i32, i32, i32, i32, i32, ptr, ptr, ptr, i32, [6 x [4 x double]], i32, i64, ptr, i32, ptr, ptr, double, double, double, ptr, ptr, ptr, double, double, i32, i32, i64, ptr, i32, i32, ptr, i32 }

; Function Attrs: nounwind uwtable
define internal void @cvRestore(ptr noundef %0, double noundef %1) #0 {
  %3 = alloca ptr, align 8
  %4 = alloca double, align 8
  %5 = alloca i32, align 4
  %6 = alloca i32, align 4
  %7 = alloca i32, align 4
  store ptr %0, ptr %3, align 8, !tbaa !7
  store double %1, ptr %4, align 8, !tbaa !102
  call void @llvm.lifetime.start.p0(i64 4, ptr %5) #8
  call void @llvm.lifetime.start.p0(i64 4, ptr %6) #8
  call void @llvm.lifetime.start.p0(i64 4, ptr %7) #8
  %8 = load double, ptr %4, align 8, !tbaa !102
  %9 = load ptr, ptr %3, align 8, !tbaa !7
  %10 = getelementptr inbounds nuw %struct.CVodeMemRec, ptr %9, i32 0, i32 83
  store double %8, ptr %10, align 8, !tbaa !118
  store i32 1, ptr %6, align 4, !tbaa !3
  br label %11

11:                                               ; preds = %50, %2
  %12 = load i32, ptr %6, align 4, !tbaa !3
  %13 = load ptr, ptr %3, align 8, !tbaa !7
  %14 = getelementptr inbounds nuw %struct.CVodeMemRec, ptr %13, i32 0, i32 72
  %15 = load i32, ptr %14, align 8, !tbaa !119
  %16 = icmp sle i32 %12, %15
  br i1 %16, label %17, label %53

17:                                               ; preds = %11
  %18 = load ptr, ptr %3, align 8, !tbaa !7
  %19 = getelementptr inbounds nuw %struct.CVodeMemRec, ptr %18, i32 0, i32 72
  %20 = load i32, ptr %19, align 8, !tbaa !119
  store i32 %20, ptr %5, align 4, !tbaa !3
  br label %21

21:                                               ; preds = %46, %17
  %22 = load i32, ptr %5, align 4, !tbaa !3
  %23 = load i32, ptr %6, align 4, !tbaa !3
  %24 = icmp sge i32 %22, %23
  br i1 %24, label %25, label %49

25:                                               ; preds = %21
  %26 = load ptr, ptr %3, align 8, !tbaa !7
  %27 = getelementptr inbounds nuw %struct.CVodeMemRec, ptr %26, i32 0, i32 46
  %28 = load i32, ptr %5, align 4, !tbaa !3
  %29 = sub nsw i32 %28, 1
  %30 = sext i32 %29 to i64
  %31 = getelementptr inbounds [13 x ptr], ptr %27, i64 0, i64 %30
  %32 = load ptr, ptr %31, align 8, !tbaa !103
  %33 = load ptr, ptr %3, align 8, !tbaa !7
  %34 = getelementptr inbounds nuw %struct.CVodeMemRec, ptr %33, i32 0, i32 46
  %35 = load i32, ptr %5, align 4, !tbaa !3
  %36 = sext i32 %35 to i64
  %37 = getelementptr inbounds [13 x ptr], ptr %34, i64 0, i64 %36
  %38 = load ptr, ptr %37, align 8, !tbaa !103
  %39 = load ptr, ptr %3, align 8, !tbaa !7
  %40 = getelementptr inbounds nuw %struct.CVodeMemRec, ptr %39, i32 0, i32 46
  %41 = load i32, ptr %5, align 4, !tbaa !3
  %42 = sub nsw i32 %41, 1
  %43 = sext i32 %42 to i64
  %44 = getelementptr inbounds [13 x ptr], ptr %40, i64 0, i64 %43
  %45 = load ptr, ptr %44, align 8, !tbaa !103
  call void @N_VLinearSum(double noundef 1.000000e+00, ptr noundef %32, double noundef -1.000000e+00, ptr noundef %38, ptr noundef %45)
  br label %46

46:                                               ; preds = %25
  %47 = load i32, ptr %5, align 4, !tbaa !3
  %48 = add nsw i32 %47, -1
  store i32 %48, ptr %5, align 4, !tbaa !3
  br label %21, !llvm.loop !393

49:                                               ; preds = %21
  br label %50

50:                                               ; preds = %49
  %51 = load i32, ptr %6, align 4, !tbaa !3
  %52 = add nsw i32 %51, 1
  store i32 %52, ptr %6, align 4, !tbaa !3
  br label %11, !llvm.loop !394

53:                                               ; preds = %11
  %54 = load ptr, ptr %3, align 8, !tbaa !7
  %55 = getelementptr inbounds nuw %struct.CVodeMemRec, ptr %54, i32 0, i32 12
  %56 = load i32, ptr %55, align 8, !tbaa !54
  %57 = icmp ne i32 %56, 0
  br i1 %57, label %58, label %102

58:                                               ; preds = %53
  store i32 1, ptr %6, align 4, !tbaa !3
  br label %59

59:                                               ; preds = %98, %58
  %60 = load i32, ptr %6, align 4, !tbaa !3
  %61 = load ptr, ptr %3, align 8, !tbaa !7
  %62 = getelementptr inbounds nuw %struct.CVodeMemRec, ptr %61, i32 0, i32 72
  %63 = load i32, ptr %62, align 8, !tbaa !119
  %64 = icmp sle i32 %60, %63
  br i1 %64, label %65, label %101

65:                                               ; preds = %59
  %66 = load ptr, ptr %3, align 8, !tbaa !7
  %67 = getelementptr inbounds nuw %struct.CVodeMemRec, ptr %66, i32 0, i32 72
  %68 = load i32, ptr %67, align 8, !tbaa !119
  store i32 %68, ptr %5, align 4, !tbaa !3
  br label %69

69:                                               ; preds = %94, %65
  %70 = load i32, ptr %5, align 4, !tbaa !3
  %71 = load i32, ptr %6, align 4, !tbaa !3
  %72 = icmp sge i32 %70, %71
  br i1 %72, label %73, label %97

73:                                               ; preds = %69
  %74 = load ptr, ptr %3, align 8, !tbaa !7
  %75 = getelementptr inbounds nuw %struct.CVodeMemRec, ptr %74, i32 0, i32 52
  %76 = load i32, ptr %5, align 4, !tbaa !3
  %77 = sub nsw i32 %76, 1
  %78 = sext i32 %77 to i64
  %79 = getelementptr inbounds [13 x ptr], ptr %75, i64 0, i64 %78
  %80 = load ptr, ptr %79, align 8, !tbaa !103
  %81 = load ptr, ptr %3, align 8, !tbaa !7
  %82 = getelementptr inbounds nuw %struct.CVodeMemRec, ptr %81, i32 0, i32 52
  %83 = load i32, ptr %5, align 4, !tbaa !3
  %84 = sext i32 %83 to i64
  %85 = getelementptr inbounds [13 x ptr], ptr %82, i64 0, i64 %84
  %86 = load ptr, ptr %85, align 8, !tbaa !103
  %87 = load ptr, ptr %3, align 8, !tbaa !7
  %88 = getelementptr inbounds nuw %struct.CVodeMemRec, ptr %87, i32 0, i32 52
  %89 = load i32, ptr %5, align 4, !tbaa !3
  %90 = sub nsw i32 %89, 1
  %91 = sext i32 %90 to i64
  %92 = getelementptr inbounds [13 x ptr], ptr %88, i64 0, i64 %91
  %93 = load ptr, ptr %92, align 8, !tbaa !103
  call void @N_VLinearSum(double noundef 1.000000e+00, ptr noundef %80, double noundef -1.000000e+00, ptr noundef %86, ptr noundef %93)
  br label %94

94:                                               ; preds = %73
  %95 = load i32, ptr %5, align 4, !tbaa !3
  %96 = add nsw i32 %95, -1
  store i32 %96, ptr %5, align 4, !tbaa !3
  br label %69, !llvm.loop !395

97:                                               ; preds = %69
  br label %98

98:                                               ; preds = %97
  %99 = load i32, ptr %6, align 4, !tbaa !3
  %100 = add nsw i32 %99, 1
  store i32 %100, ptr %6, align 4, !tbaa !3
  br label %59, !llvm.loop !396

101:                                              ; preds = %59
  br label %102

102:                                              ; preds = %101, %53
  %103 = load ptr, ptr %3, align 8, !tbaa !7
  %104 = getelementptr inbounds nuw %struct.CVodeMemRec, ptr %103, i32 0, i32 19
  %105 = load i32, ptr %104, align 8, !tbaa !58
  %106 = icmp ne i32 %105, 0
  br i1 %106, label %107, label %174

107:                                              ; preds = %102
  store i32 0, ptr %7, align 4, !tbaa !3
  br label %108

108:                                              ; preds = %170, %107
  %109 = load i32, ptr %7, align 4, !tbaa !3
  %110 = load ptr, ptr %3, align 8, !tbaa !7
  %111 = getelementptr inbounds nuw %struct.CVodeMemRec, ptr %110, i32 0, i32 20
  %112 = load i32, ptr %111, align 4, !tbaa !184
  %113 = icmp slt i32 %109, %112
  br i1 %113, label %114, label %173

114:                                              ; preds = %108
  store i32 1, ptr %6, align 4, !tbaa !3
  br label %115

115:                                              ; preds = %166, %114
  %116 = load i32, ptr %6, align 4, !tbaa !3
  %117 = load ptr, ptr %3, align 8, !tbaa !7
  %118 = getelementptr inbounds nuw %struct.CVodeMemRec, ptr %117, i32 0, i32 72
  %119 = load i32, ptr %118, align 8, !tbaa !119
  %120 = icmp sle i32 %116, %119
  br i1 %120, label %121, label %169

121:                                              ; preds = %115
  %122 = load ptr, ptr %3, align 8, !tbaa !7
  %123 = getelementptr inbounds nuw %struct.CVodeMemRec, ptr %122, i32 0, i32 72
  %124 = load i32, ptr %123, align 8, !tbaa !119
  store i32 %124, ptr %5, align 4, !tbaa !3
  br label %125

125:                                              ; preds = %162, %121
  %126 = load i32, ptr %5, align 4, !tbaa !3
  %127 = load i32, ptr %6, align 4, !tbaa !3
  %128 = icmp sge i32 %126, %127
  br i1 %128, label %129, label %165

129:                                              ; preds = %125
  %130 = load ptr, ptr %3, align 8, !tbaa !7
  %131 = getelementptr inbounds nuw %struct.CVodeMemRec, ptr %130, i32 0, i32 57
  %132 = load i32, ptr %5, align 4, !tbaa !3
  %133 = sub nsw i32 %132, 1
  %134 = sext i32 %133 to i64
  %135 = getelementptr inbounds [13 x ptr], ptr %131, i64 0, i64 %134
  %136 = load ptr, ptr %135, align 8, !tbaa !104
  %137 = load i32, ptr %7, align 4, !tbaa !3
  %138 = sext i32 %137 to i64
  %139 = getelementptr inbounds ptr, ptr %136, i64 %138
  %140 = load ptr, ptr %139, align 8, !tbaa !103
  %141 = load ptr, ptr %3, align 8, !tbaa !7
  %142 = getelementptr inbounds nuw %struct.CVodeMemRec, ptr %141, i32 0, i32 57
  %143 = load i32, ptr %5, align 4, !tbaa !3
  %144 = sext i32 %143 to i64
  %145 = getelementptr inbounds [13 x ptr], ptr %142, i64 0, i64 %144
  %146 = load ptr, ptr %145, align 8, !tbaa !104
  %147 = load i32, ptr %7, align 4, !tbaa !3
  %148 = sext i32 %147 to i64
  %149 = getelementptr inbounds ptr, ptr %146, i64 %148
  %150 = load ptr, ptr %149, align 8, !tbaa !103
  %151 = load ptr, ptr %3, align 8, !tbaa !7
  %152 = getelementptr inbounds nuw %struct.CVodeMemRec, ptr %151, i32 0, i32 57
  %153 = load i32, ptr %5, align 4, !tbaa !3
  %154 = sub nsw i32 %153, 1
  %155 = sext i32 %154 to i64
  %156 = getelementptr inbounds [13 x ptr], ptr %152, i64 0, i64 %155
  %157 = load ptr, ptr %156, align 8, !tbaa !104
  %158 = load i32, ptr %7, align 4, !tbaa !3
  %159 = sext i32 %158 to i64
  %160 = getelementptr inbounds ptr, ptr %157, i64 %159
  %161 = load ptr, ptr %160, align 8, !tbaa !103
  call void @N_VLinearSum(double noundef 1.000000e+00, ptr noundef %140, double noundef -1.000000e+00, ptr noundef %150, ptr noundef %161)
  br label %162

162:                                              ; preds = %129
  %163 = load i32, ptr %5, align 4, !tbaa !3
  %164 = add nsw i32 %163, -1
  store i32 %164, ptr %5, align 4, !tbaa !3
  br label %125, !llvm.loop !397

165:                                              ; preds = %125
  br label %166

166:                                              ; preds = %165
  %167 = load i32, ptr %6, align 4, !tbaa !3
  %168 = add nsw i32 %167, 1
  store i32 %168, ptr %6, align 4, !tbaa !3
  br label %115, !llvm.loop !398

169:                                              ; preds = %115
  br label %170

170:                                              ; preds = %169
  %171 = load i32, ptr %7, align 4, !tbaa !3
  %172 = add nsw i32 %171, 1
  store i32 %172, ptr %7, align 4, !tbaa !3
  br label %108, !llvm.loop !399

173:                                              ; preds = %108
  br label %174

174:                                              ; preds = %173, %102
  %175 = load ptr, ptr %3, align 8, !tbaa !7
  %176 = getelementptr inbounds nuw %struct.CVodeMemRec, ptr %175, i32 0, i32 37
  %177 = load i32, ptr %176, align 8, !tbaa !75
  %178 = icmp ne i32 %177, 0
  br i1 %178, label %179, label %246

179:                                              ; preds = %174
  store i32 0, ptr %7, align 4, !tbaa !3
  br label %180

180:                                              ; preds = %242, %179
  %181 = load i32, ptr %7, align 4, !tbaa !3
  %182 = load ptr, ptr %3, align 8, !tbaa !7
  %183 = getelementptr inbounds nuw %struct.CVodeMemRec, ptr %182, i32 0, i32 20
  %184 = load i32, ptr %183, align 4, !tbaa !184
  %185 = icmp slt i32 %181, %184
  br i1 %185, label %186, label %245

186:                                              ; preds = %180
  store i32 1, ptr %6, align 4, !tbaa !3
  br label %187

187:                                              ; preds = %238, %186
  %188 = load i32, ptr %6, align 4, !tbaa !3
  %189 = load ptr, ptr %3, align 8, !tbaa !7
  %190 = getelementptr inbounds nuw %struct.CVodeMemRec, ptr %189, i32 0, i32 72
  %191 = load i32, ptr %190, align 8, !tbaa !119
  %192 = icmp sle i32 %188, %191
  br i1 %192, label %193, label %241

193:                                              ; preds = %187
  %194 = load ptr, ptr %3, align 8, !tbaa !7
  %195 = getelementptr inbounds nuw %struct.CVodeMemRec, ptr %194, i32 0, i32 72
  %196 = load i32, ptr %195, align 8, !tbaa !119
  store i32 %196, ptr %5, align 4, !tbaa !3
  br label %197

197:                                              ; preds = %234, %193
  %198 = load i32, ptr %5, align 4, !tbaa !3
  %199 = load i32, ptr %6, align 4, !tbaa !3
  %200 = icmp sge i32 %198, %199
  br i1 %200, label %201, label %237

201:                                              ; preds = %197
  %202 = load ptr, ptr %3, align 8, !tbaa !7
  %203 = getelementptr inbounds nuw %struct.CVodeMemRec, ptr %202, i32 0, i32 64
  %204 = load i32, ptr %5, align 4, !tbaa !3
  %205 = sub nsw i32 %204, 1
  %206 = sext i32 %205 to i64
  %207 = getelementptr inbounds [13 x ptr], ptr %203, i64 0, i64 %206
  %208 = load ptr, ptr %207, align 8, !tbaa !104
  %209 = load i32, ptr %7, align 4, !tbaa !3
  %210 = sext i32 %209 to i64
  %211 = getelementptr inbounds ptr, ptr %208, i64 %210
  %212 = load ptr, ptr %211, align 8, !tbaa !103
  %213 = load ptr, ptr %3, align 8, !tbaa !7
  %214 = getelementptr inbounds nuw %struct.CVodeMemRec, ptr %213, i32 0, i32 64
  %215 = load i32, ptr %5, align 4, !tbaa !3
  %216 = sext i32 %215 to i64
  %217 = getelementptr inbounds [13 x ptr], ptr %214, i64 0, i64 %216
  %218 = load ptr, ptr %217, align 8, !tbaa !104
  %219 = load i32, ptr %7, align 4, !tbaa !3
  %220 = sext i32 %219 to i64
  %221 = getelementptr inbounds ptr, ptr %218, i64 %220
  %222 = load ptr, ptr %221, align 8, !tbaa !103
  %223 = load ptr, ptr %3, align 8, !tbaa !7
  %224 = getelementptr inbounds nuw %struct.CVodeMemRec, ptr %223, i32 0, i32 64
  %225 = load i32, ptr %5, align 4, !tbaa !3
  %226 = sub nsw i32 %225, 1
  %227 = sext i32 %226 to i64
  %228 = getelementptr inbounds [13 x ptr], ptr %224, i64 0, i64 %227
  %229 = load ptr, ptr %228, align 8, !tbaa !104
  %230 = load i32, ptr %7, align 4, !tbaa !3
  %231 = sext i32 %230 to i64
  %232 = getelementptr inbounds ptr, ptr %229, i64 %231
  %233 = load ptr, ptr %232, align 8, !tbaa !103
  call void @N_VLinearSum(double noundef 1.000000e+00, ptr noundef %212, double noundef -1.000000e+00, ptr noundef %222, ptr noundef %233)
  br label %234

234:                                              ; preds = %201
  %235 = load i32, ptr %5, align 4, !tbaa !3
  %236 = add nsw i32 %235, -1
  store i32 %236, ptr %5, align 4, !tbaa !3
  br label %197, !llvm.loop !400

237:                                              ; preds = %197
  br label %238

238:                                              ; preds = %237
  %239 = load i32, ptr %6, align 4, !tbaa !3
  %240 = add nsw i32 %239, 1
  store i32 %240, ptr %6, align 4, !tbaa !3
  br label %187, !llvm.loop !401

241:                                              ; preds = %187
  br label %242

242:                                              ; preds = %241
  %243 = load i32, ptr %7, align 4, !tbaa !3
  %244 = add nsw i32 %243, 1
  store i32 %244, ptr %7, align 4, !tbaa !3
  br label %180, !llvm.loop !402

245:                                              ; preds = %180
  br label %246

246:                                              ; preds = %245, %174
  call void @llvm.lifetime.end.p0(i64 4, ptr %7) #8
  call void @llvm.lifetime.end.p0(i64 4, ptr %6) #8
  call void @llvm.lifetime.end.p0(i64 4, ptr %5) #8
  ret void
}