; Function Attrs: nounwind uwtable
define internal fastcc void @cvRestore(ptr noundef nonnull captures(none) initializes((984, 992)) %0, double noundef %1) unnamed_addr #0 {
  %3 = getelementptr inbounds nuw i8, ptr %0, i64 984
  store double %1, ptr %3, align 8, !tbaa !84
  %4 = getelementptr inbounds nuw i8, ptr %0, i64 912
  %5 = load i32, ptr %4, align 8, !tbaa !85
  %.not99 = icmp slt i32 %5, 1
  br i1 %.not99, label %._crit_edge, label %.preheader97.lr.ph

.preheader97.lr.ph:                               ; preds = %2
  %6 = getelementptr inbounds nuw i8, ptr %0, i64 320
  br label %.preheader97

.preheader97:                                     ; preds = %.preheader97.lr.ph, %14
  %indvars.iv117 = phi i64 [ 1, %.preheader97.lr.ph ], [ %indvars.iv.next118, %14 ]
  %7 = phi i32 [ %5, %.preheader97.lr.ph ], [ %15, %14 ]
  %8 = sext i32 %7 to i64
  br label %9

9:                                                ; preds = %.preheader97, %9
  %indvars.iv = phi i64 [ %8, %.preheader97 ], [ %indvars.iv.next, %9 ]
  %indvars.iv.next = add nsw i64 %indvars.iv, -1
  %10 = getelementptr inbounds [13 x ptr], ptr %6, i64 0, i64 %indvars.iv.next
  %11 = load ptr, ptr %10, align 8, !tbaa !46
  %12 = getelementptr inbounds [13 x ptr], ptr %6, i64 0, i64 %indvars.iv
  %13 = load ptr, ptr %12, align 8, !tbaa !46
  tail call void @N_VLinearSum(double noundef 1.000000e+00, ptr noundef %11, double noundef -1.000000e+00, ptr noundef %13, ptr noundef %11) #13
  %.not87.not = icmp sgt i64 %indvars.iv, %indvars.iv117
  br i1 %.not87.not, label %9, label %14, !llvm.loop !411

14:                                               ; preds = %9
  %indvars.iv.next118 = add nuw nsw i64 %indvars.iv117, 1
  %15 = load i32, ptr %4, align 8, !tbaa !85
  %16 = sext i32 %15 to i64
  %.not.not = icmp slt i64 %indvars.iv117, %16
  br i1 %.not.not, label %.preheader97, label %._crit_edge, !llvm.loop !412

._crit_edge:                                      ; preds = %14, %2
  %17 = phi i32 [ %5, %2 ], [ %15, %14 ]
  %18 = getelementptr inbounds nuw i8, ptr %0, i64 88
  %19 = load i32, ptr %18, align 8, !tbaa !125
  %.not78 = icmp eq i32 %19, 0
  %.not79102 = icmp slt i32 %17, 1
  %or.cond = or i1 %.not78, %.not79102
  br i1 %or.cond, label %.loopexit96, label %.preheader94.lr.ph

.preheader94.lr.ph:                               ; preds = %._crit_edge
  %20 = getelementptr inbounds nuw i8, ptr %0, i64 464
  br label %.preheader94

.preheader94:                                     ; preds = %.preheader94.lr.ph, %28
  %indvars.iv123 = phi i64 [ 1, %.preheader94.lr.ph ], [ %indvars.iv.next124, %28 ]
  %21 = phi i32 [ %17, %.preheader94.lr.ph ], [ %29, %28 ]
  %22 = sext i32 %21 to i64
  br label %23

23:                                               ; preds = %.preheader94, %23
  %indvars.iv120 = phi i64 [ %22, %.preheader94 ], [ %indvars.iv.next121, %23 ]
  %indvars.iv.next121 = add nsw i64 %indvars.iv120, -1
  %24 = getelementptr inbounds [13 x ptr], ptr %20, i64 0, i64 %indvars.iv.next121
  %25 = load ptr, ptr %24, align 8, !tbaa !46
  %26 = getelementptr inbounds [13 x ptr], ptr %20, i64 0, i64 %indvars.iv120
  %27 = load ptr, ptr %26, align 8, !tbaa !46
  tail call void @N_VLinearSum(double noundef 1.000000e+00, ptr noundef %25, double noundef -1.000000e+00, ptr noundef %27, ptr noundef %25) #13
  %.not86.not = icmp sgt i64 %indvars.iv120, %indvars.iv123
  br i1 %.not86.not, label %23, label %28, !llvm.loop !413

28:                                               ; preds = %23
  %indvars.iv.next124 = add nuw nsw i64 %indvars.iv123, 1
  %29 = load i32, ptr %4, align 8, !tbaa !85
  %30 = sext i32 %29 to i64
  %.not79.not = icmp slt i64 %indvars.iv123, %30
  br i1 %.not79.not, label %.preheader94, label %.loopexit96, !llvm.loop !414

.loopexit96:                                      ; preds = %28, %._crit_edge
  %31 = phi i32 [ %17, %._crit_edge ], [ %29, %28 ]
  %32 = getelementptr inbounds nuw i8, ptr %0, i64 136
  %33 = load i32, ptr %32, align 8, !tbaa !144
  %.not80 = icmp eq i32 %33, 0
  br i1 %.not80, label %.loopexit93, label %.preheader92

.preheader92:                                     ; preds = %.loopexit96
  %34 = getelementptr inbounds nuw i8, ptr %0, i64 140
  %35 = load i32, ptr %34, align 4, !tbaa !133
  %36 = icmp sgt i32 %35, 0
  br i1 %36, label %.preheader91.lr.ph, label %.loopexit93

.preheader91.lr.ph:                               ; preds = %.preheader92
  %37 = getelementptr inbounds nuw i8, ptr %0, i64 600
  %38 = icmp slt i32 %31, 1
  br i1 %38, label %.loopexit93, label %.preheader91

.preheader91:                                     ; preds = %.preheader91.lr.ph, %._crit_edge107
  %39 = phi i32 [ %55, %._crit_edge107 ], [ %35, %.preheader91.lr.ph ]
  %40 = phi i32 [ %56, %._crit_edge107 ], [ %31, %.preheader91.lr.ph ]
  %indvars.iv132 = phi i64 [ %indvars.iv.next133, %._crit_edge107 ], [ 0, %.preheader91.lr.ph ]
  %.not84105 = icmp slt i32 %40, 1
  br i1 %.not84105, label %._crit_edge107, label %.preheader90

.preheader90:                                     ; preds = %.preheader91, %52
  %indvars.iv129 = phi i64 [ %indvars.iv.next130, %52 ], [ 1, %.preheader91 ]
  %41 = phi i32 [ %53, %52 ], [ %40, %.preheader91 ]
  %42 = sext i32 %41 to i64
  br label %43

43:                                               ; preds = %.preheader90, %43
  %indvars.iv126 = phi i64 [ %42, %.preheader90 ], [ %indvars.iv.next127, %43 ]
  %indvars.iv.next127 = add nsw i64 %indvars.iv126, -1
  %44 = getelementptr inbounds [13 x ptr], ptr %37, i64 0, i64 %indvars.iv.next127
  %45 = load ptr, ptr %44, align 8, !tbaa !137
  %46 = getelementptr inbounds nuw ptr, ptr %45, i64 %indvars.iv132
  %47 = load ptr, ptr %46, align 8, !tbaa !46
  %48 = getelementptr inbounds [13 x ptr], ptr %37, i64 0, i64 %indvars.iv126
  %49 = load ptr, ptr %48, align 8, !tbaa !137
  %50 = getelementptr inbounds nuw ptr, ptr %49, i64 %indvars.iv132
  %51 = load ptr, ptr %50, align 8, !tbaa !46
  tail call void @N_VLinearSum(double noundef 1.000000e+00, ptr noundef %47, double noundef -1.000000e+00, ptr noundef %51, ptr noundef %47) #13
  %.not85.not = icmp sgt i64 %indvars.iv126, %indvars.iv129
  br i1 %.not85.not, label %43, label %52, !llvm.loop !415

52:                                               ; preds = %43
  %indvars.iv.next130 = add nuw nsw i64 %indvars.iv129, 1
  %53 = load i32, ptr %4, align 8, !tbaa !85
  %54 = sext i32 %53 to i64
  %.not84.not = icmp slt i64 %indvars.iv129, %54
  br i1 %.not84.not, label %.preheader90, label %._crit_edge107.loopexit, !llvm.loop !416

._crit_edge107.loopexit:                          ; preds = %52
  %.pre = load i32, ptr %34, align 4, !tbaa !133
  br label %._crit_edge107

._crit_edge107:                                   ; preds = %._crit_edge107.loopexit, %.preheader91
  %55 = phi i32 [ %.pre, %._crit_edge107.loopexit ], [ %39, %.preheader91 ]
  %56 = phi i32 [ %53, %._crit_edge107.loopexit ], [ %40, %.preheader91 ]
  %indvars.iv.next133 = add nuw nsw i64 %indvars.iv132, 1
  %57 = sext i32 %55 to i64
  %58 = icmp slt i64 %indvars.iv.next133, %57
  br i1 %58, label %.preheader91, label %.loopexit93, !llvm.loop !417

.loopexit93:                                      ; preds = %._crit_edge107, %.preheader91.lr.ph, %.preheader92, %.loopexit96
  %59 = phi i32 [ %31, %.preheader92 ], [ %31, %.loopexit96 ], [ %31, %.preheader91.lr.ph ], [ %56, %._crit_edge107 ]
  %60 = getelementptr inbounds nuw i8, ptr %0, i64 256
  %61 = load i32, ptr %60, align 8, !tbaa !184
  %.not81 = icmp eq i32 %61, 0
  br i1 %.not81, label %.loopexit, label %.preheader89

.preheader89:                                     ; preds = %.loopexit93
  %62 = getelementptr inbounds nuw i8, ptr %0, i64 140
  %63 = load i32, ptr %62, align 4, !tbaa !133
  %64 = icmp sgt i32 %63, 0
  br i1 %64, label %.preheader88.lr.ph, label %.loopexit

.preheader88.lr.ph:                               ; preds = %.preheader89
  %65 = getelementptr inbounds nuw i8, ptr %0, i64 752
  %66 = icmp slt i32 %59, 1
  br i1 %66, label %.loopexit, label %.preheader88

.preheader88:                                     ; preds = %.preheader88.lr.ph, %._crit_edge112
  %67 = phi i32 [ %83, %._crit_edge112 ], [ %63, %.preheader88.lr.ph ]
  %68 = phi i32 [ %84, %._crit_edge112 ], [ %59, %.preheader88.lr.ph ]
  %indvars.iv141 = phi i64 [ %indvars.iv.next142, %._crit_edge112 ], [ 0, %.preheader88.lr.ph ]
  %.not82110 = icmp slt i32 %68, 1
  br i1 %.not82110, label %._crit_edge112, label %.preheader

.preheader:                                       ; preds = %.preheader88, %80
  %indvars.iv138 = phi i64 [ %indvars.iv.next139, %80 ], [ 1, %.preheader88 ]
  %69 = phi i32 [ %81, %80 ], [ %68, %.preheader88 ]
  %70 = sext i32 %69 to i64
  br label %71

71:                                               ; preds = %.preheader, %71
  %indvars.iv135 = phi i64 [ %70, %.preheader ], [ %indvars.iv.next136, %71 ]
  %indvars.iv.next136 = add nsw i64 %indvars.iv135, -1
  %72 = getelementptr inbounds [13 x ptr], ptr %65, i64 0, i64 %indvars.iv.next136
  %73 = load ptr, ptr %72, align 8, !tbaa !137
  %74 = getelementptr inbounds nuw ptr, ptr %73, i64 %indvars.iv141
  %75 = load ptr, ptr %74, align 8, !tbaa !46
  %76 = getelementptr inbounds [13 x ptr], ptr %65, i64 0, i64 %indvars.iv135
  %77 = load ptr, ptr %76, align 8, !tbaa !137
  %78 = getelementptr inbounds nuw ptr, ptr %77, i64 %indvars.iv141
  %79 = load ptr, ptr %78, align 8, !tbaa !46
  tail call void @N_VLinearSum(double noundef 1.000000e+00, ptr noundef %75, double noundef -1.000000e+00, ptr noundef %79, ptr noundef %75) #13
  %.not83.not = icmp sgt i64 %indvars.iv135, %indvars.iv138
  br i1 %.not83.not, label %71, label %80, !llvm.loop !418

80:                                               ; preds = %71
  %indvars.iv.next139 = add nuw nsw i64 %indvars.iv138, 1
  %81 = load i32, ptr %4, align 8, !tbaa !85
  %82 = sext i32 %81 to i64
  %.not82.not = icmp slt i64 %indvars.iv138, %82
  br i1 %.not82.not, label %.preheader, label %._crit_edge112.loopexit, !llvm.loop !419

._crit_edge112.loopexit:                          ; preds = %80
  %.pre144 = load i32, ptr %62, align 4, !tbaa !133
  br label %._crit_edge112

._crit_edge112:                                   ; preds = %._crit_edge112.loopexit, %.preheader88
  %83 = phi i32 [ %.pre144, %._crit_edge112.loopexit ], [ %67, %.preheader88 ]
  %84 = phi i32 [ %81, %._crit_edge112.loopexit ], [ %68, %.preheader88 ]
  %indvars.iv.next142 = add nuw nsw i64 %indvars.iv141, 1
  %85 = sext i32 %83 to i64
  %86 = icmp slt i64 %indvars.iv.next142, %85
  br i1 %86, label %.preheader88, label %.loopexit, !llvm.loop !420

.loopexit:                                        ; preds = %._crit_edge112, %.preheader88.lr.ph, %.preheader89, %.loopexit93
  ret void
}